target datalayout = "e-m:e-p270:32:32-p271:32:32-p272:64:64-i64:64-i128:128-f80:128-n8:16:32:64-S128"
target triple = "x86_64-pc-linux-gnu"

%struct.packing_data = type { ptr, ptr, i32, i32, ptr, i32, ptr, ptr, ptr, ptr, %union.pthread_mutex_t, ptr, i32, i32, i64, i64, ptr, ptr, ptr }
%union.pthread_mutex_t = type { %struct.__pthread_mutex_s }
%struct.__pthread_mutex_s = type { i32, i32, i32, i32, i32, i16, i16, %struct.__pthread_internal_list }
%struct.__pthread_internal_list = type { ptr, ptr }
%struct.object_entry = type { %struct.pack_idx_entry, ptr, i64, i32, i32, i32, i32, i32, [3 x i8], i8, i64 }
%struct.pack_idx_entry = type { %struct.object_id, i32, i64 }
%struct.object_id = type { [32 x i8], i32 }

@to_pack = internal global %struct.packing_data zeroinitializer, align 8

; Function Attrs: inlinehint nounwind uwtable
define internal ptr @oe_delta_sibling(ptr noundef %0, ptr noundef %1) #2 {
  %3 = alloca ptr, align 8
  %4 = alloca ptr, align 8
  %5 = alloca ptr, align 8
  store ptr %0, ptr %4, align 8, !tbaa !4
  store ptr %1, ptr %5, align 8, !tbaa !9
  %6 = load ptr, ptr %5, align 8, !tbaa !9
  %7 = getelementptr inbounds nuw %struct.object_entry, ptr %6, i32 0, i32 7
  %8 = load i32, ptr %7, align 8, !tbaa !321
  %9 = icmp ne i32 %8, 0
  br i1 %9, label %10, label %20

10:                                               ; preds = %2
  %11 = load ptr, ptr %4, align 8, !tbaa !4
  %12 = getelementptr inbounds nuw %struct.packing_data, ptr %11, i32 0, i32 1
  %13 = load ptr, ptr %12, align 8, !tbaa !34
  %14 = load ptr, ptr %5, align 8, !tbaa !9
  %15 = getelementptr inbounds nuw %struct.object_entry, ptr %14, i32 0, i32 7
  %16 = load i32, ptr %15, align 8, !tbaa !321
  %17 = sub i32 %16, 1
  %18 = zext i32 %17 to i64
  %19 = getelementptr inbounds nuw %struct.object_entry, ptr %13, i64 %18
  store ptr %19, ptr %3, align 8
  br label %21

20:                                               ; preds = %2
  store ptr null, ptr %3, align 8
  br label %21

21:                                               ; preds = %20, %10
  %22 = load ptr, ptr %3, align 8
  ret ptr %22
}

; Function Attrs: inlinehint nounwind uwtable
define internal ptr @oe_delta_child(ptr noundef %0, ptr noundef %1) #2 {
  %3 = alloca ptr, align 8
  %4 = alloca ptr, align 8
  %5 = alloca ptr, align 8
  store ptr %0, ptr %4, align 8, !tbaa !4
  store ptr %1, ptr %5, align 8, !tbaa !9
  %6 = load ptr, ptr %5, align 8, !tbaa !9
  %7 = getelementptr inbounds nuw %struct.object_entry, ptr %6, i32 0, i32 6
  %8 = load i32, ptr %7, align 4, !tbaa !320
  %9 = icmp ne i32 %8, 0
  br i1 %9, label %10, label %20

10:                                               ; preds = %2
  %11 = load ptr, ptr %4, align 8, !tbaa !4
  %12 = getelementptr inbounds nuw %struct.packing_data, ptr %11, i32 0, i32 1
  %13 = load ptr, ptr %12, align 8, !tbaa !34
  %14 = load ptr, ptr %5, align 8, !tbaa !9
  %15 = getelementptr inbounds nuw %struct.object_entry, ptr %14, i32 0, i32 6
  %16 = load i32, ptr %15, align 4, !tbaa !320
  %17 = sub i32 %16, 1
  %18 = zext i32 %17 to i64
  %19 = getelementptr inbounds nuw %struct.object_entry, ptr %13, i64 %18
  store ptr %19, ptr %3, align 8
  br label %21

20:                                               ; preds = %2
  store ptr null, ptr %3, align 8
  br label %21

21:                                               ; preds = %20, %10
  %22 = load ptr, ptr %3, align 8
  ret ptr %22
}

; Function Attrs: nounwind uwtable
define internal i32 @check_delta_limit(ptr noundef %0, i32 noundef %1) #0 {
  %3 = alloca ptr, align 8
  %4 = alloca i32, align 4
  %5 = alloca ptr, align 8
  %6 = alloca i32, align 4
  %7 = alloca i32, align 4
  store ptr %0, ptr %3, align 8, !tbaa !9
  store i32 %1, ptr %4, align 4, !tbaa !27
  call void @llvm.lifetime.start.p0(i64 8, ptr %5) #11
  %8 = load ptr, ptr %3, align 8, !tbaa !9
  %9 = call ptr @oe_delta_child(ptr noundef @to_pack, ptr noundef %8)
  store ptr %9, ptr %5, align 8, !tbaa !9
  call void @llvm.lifetime.start.p0(i64 4, ptr %6) #11
  %10 = load i32, ptr %4, align 4, !tbaa !27
  store i32 %10, ptr %6, align 4, !tbaa !27
  br label %11

11:                                               ; preds = %24, %2
  %12 = load ptr, ptr %5, align 8, !tbaa !9
  %13 = icmp ne ptr %12, null
  br i1 %13, label %14, label %27

14:                                               ; preds = %11
  call void @llvm.lifetime.start.p0(i64 4, ptr %7) #11
  %15 = load ptr, ptr %5, align 8, !tbaa !9
  %16 = load i32, ptr %4, align 4, !tbaa !27
  %17 = add i32 %16, 1
  %18 = call i32 @check_delta_limit(ptr noundef %15, i32 noundef %17)
  store i32 %18, ptr %7, align 4, !tbaa !27
  %19 = load i32, ptr %6, align 4, !tbaa !27
  %20 = load i32, ptr %7, align 4, !tbaa !27
  %21 = icmp ult i32 %19, %20
  br i1 %21, label %22, label %24

22:                                               ; preds = %14
  %23 = load i32, ptr %7, align 4, !tbaa !27
  store i32 %23, ptr %6, align 4, !tbaa !27
  br label %24

24:                                               ; preds = %22, %14
  %25 = load ptr, ptr %5, align 8, !tbaa !9
  %26 = call ptr @oe_delta_sibling(ptr noundef @to_pack, ptr noundef %25)
  store ptr %26, ptr %5, align 8, !tbaa !9
  call void @llvm.lifetime.end.p0(i64 4, ptr %7) #11
  br label %11, !llvm.loop !350

27:                                               ; preds = %11
  %28 = load i32, ptr %6, align 4, !tbaa !27
  call void @llvm.lifetime.end.p0(i64 4, ptr %6) #11
  call void @llvm.lifetime.end.p0(i64 8, ptr %5) #11
  ret i32 %28
}