; Function Attrs: nofree nosync nounwind memory(read, inaccessiblemem: none) uwtable
define internal fastcc i32 @check_delta_limit(i32 %.76.val, i32 noundef %0) unnamed_addr #20 {
  %.not.i = icmp eq i32 %.76.val, 0
  %2 = load ptr, ptr getelementptr inbounds nuw (i8, ptr @to_pack, i64 8), align 8
  %.not47 = icmp eq ptr %2, null
  %.not4 = select i1 %.not.i, i1 true, i1 %.not47
  br i1 %.not4, label %select.unfold._crit_edge, label %.lr.ph

.lr.ph:                                           ; preds = %1
  %3 = add i32 %0, 1
  br label %select.unfold

select.unfold:                                    ; preds = %.lr.ph, %select.unfold
  %.pn.in.in = phi i32 [ %.76.val, %.lr.ph ], [ %.0.val, %select.unfold ]
  %.095 = phi i32 [ %0, %.lr.ph ], [ %spec.select, %select.unfold ]
  %.pn.in = add i32 %.pn.in.in, -1
  %.pn = zext i32 %.pn.in to i64
  %.06 = getelementptr inbounds nuw %struct.object_entry, ptr %2, i64 %.pn
  %4 = getelementptr i8, ptr %.06, i64 76
  %.0.val13 = load i32, ptr %4, align 4, !tbaa !177
  %5 = tail call fastcc i32 @check_delta_limit(i32 %.0.val13, i32 noundef %3)
  %spec.select = tail call i32 @llvm.umax.i32(i32 %.095, i32 %5)
  %6 = getelementptr i8, ptr %.06, i64 80
  %.0.val = load i32, ptr %6, align 8, !tbaa !178
  %.not.i11 = icmp eq i32 %.0.val, 0
  br i1 %.not.i11, label %select.unfold._crit_edge, label %select.unfold

select.unfold._crit_edge:                         ; preds = %select.unfold, %1
  %.09.lcssa = phi i32 [ %0, %1 ], [ %spec.select, %select.unfold ]
  ret i32 %.09.lcssa
}